target datalayout = "e-m:e-p270:32:32-p271:32:32-p272:64:64-i64:64-i128:128-f80:128-n8:16:32:64-S128"
target triple = "x86_64-pc-linux-gnu"

%struct.WebPPicture = type { i32, i32, i32, i32, ptr, ptr, ptr, i32, i32, ptr, i32, [2 x i32], ptr, i32, [3 x i32], ptr, ptr, i32, ptr, ptr, i32, ptr, ptr, [3 x i32], ptr, ptr, [8 x i32], ptr, ptr, [2 x ptr] }

; Function Attrs: nounwind uwtable
define internal void @ConvertToGray(ptr noundef %0) #0 {
  %2 = alloca ptr, align 8
  %3 = alloca i32, align 4
  %4 = alloca i32, align 4
  %5 = alloca ptr, align 8
  %6 = alloca i32, align 4
  %7 = alloca i32, align 4
  %8 = alloca i32, align 4
  %9 = alloca i32, align 4
  %10 = alloca i32, align 4
  store ptr %0, ptr %2, align 8, !tbaa !30
  call void @llvm.lifetime.start.p0(i64 4, ptr %3) #9
  call void @llvm.lifetime.start.p0(i64 4, ptr %4) #9
  store i32 0, ptr %4, align 4, !tbaa !4
  br label %11

11:                                               ; preds = %73, %1
  %12 = load i32, ptr %4, align 4, !tbaa !4
  %13 = load ptr, ptr %2, align 8, !tbaa !30
  %14 = getelementptr inbounds nuw %struct.WebPPicture, ptr %13, i32 0, i32 3
  %15 = load i32, ptr %14, align 4, !tbaa !25
  %16 = icmp slt i32 %12, %15
  br i1 %16, label %17, label %76

17:                                               ; preds = %11
  call void @llvm.lifetime.start.p0(i64 8, ptr %5) #9
  %18 = load ptr, ptr %2, align 8, !tbaa !30
  %19 = getelementptr inbounds nuw %struct.WebPPicture, ptr %18, i32 0, i32 12
  %20 = load ptr, ptr %19, align 8, !tbaa !27
  %21 = load i32, ptr %4, align 4, !tbaa !4
  %22 = load ptr, ptr %2, align 8, !tbaa !30
  %23 = getelementptr inbounds nuw %struct.WebPPicture, ptr %22, i32 0, i32 13
  %24 = load i32, ptr %23, align 8, !tbaa !28
  %25 = mul nsw i32 %21, %24
  %26 = sext i32 %25 to i64
  %27 = getelementptr inbounds i32, ptr %20, i64 %26
  store ptr %27, ptr %5, align 8, !tbaa !42
  store i32 0, ptr %3, align 4, !tbaa !4
  br label %28

28:                                               ; preds = %69, %17
  %29 = load i32, ptr %3, align 4, !tbaa !4
  %30 = load ptr, ptr %2, align 8, !tbaa !30
  %31 = getelementptr inbounds nuw %struct.WebPPicture, ptr %30, i32 0, i32 2
  %32 = load i32, ptr %31, align 8, !tbaa !21
  %33 = icmp slt i32 %29, %32
  br i1 %33, label %34, label %72

34:                                               ; preds = %28
  call void @llvm.lifetime.start.p0(i64 4, ptr %6) #9
  %35 = load ptr, ptr %5, align 8, !tbaa !42
  %36 = load i32, ptr %3, align 4, !tbaa !4
  %37 = sext i32 %36 to i64
  %38 = getelementptr inbounds i32, ptr %35, i64 %37
  %39 = load i32, ptr %38, align 4, !tbaa !4
  store i32 %39, ptr %6, align 4, !tbaa !4
  call void @llvm.lifetime.start.p0(i64 4, ptr %7) #9
  %40 = load i32, ptr %6, align 4, !tbaa !4
  %41 = lshr i32 %40, 16
  %42 = and i32 %41, 255
  store i32 %42, ptr %7, align 4, !tbaa !4
  call void @llvm.lifetime.start.p0(i64 4, ptr %8) #9
  %43 = load i32, ptr %6, align 4, !tbaa !4
  %44 = lshr i32 %43, 8
  %45 = and i32 %44, 255
  store i32 %45, ptr %8, align 4, !tbaa !4
  call void @llvm.lifetime.start.p0(i64 4, ptr %9) #9
  %46 = load i32, ptr %6, align 4, !tbaa !4
  %47 = lshr i32 %46, 0
  %48 = and i32 %47, 255
  store i32 %48, ptr %9, align 4, !tbaa !4
  call void @llvm.lifetime.start.p0(i64 4, ptr %10) #9
  %49 = load i32, ptr %7, align 4, !tbaa !4
  %50 = uitofp i32 %49 to double
  %51 = load i32, ptr %8, align 4, !tbaa !4
  %52 = uitofp i32 %51 to double
  %53 = fmul double 7.152000e-01, %52
  %54 = call double @llvm.fmuladd.f64(double 2.126000e-01, double %50, double %53)
  %55 = load i32, ptr %9, align 4, !tbaa !4
  %56 = uitofp i32 %55 to double
  %57 = call double @llvm.fmuladd.f64(double 7.220000e-02, double %56, double %54)
  %58 = fadd double %57, 5.000000e-01
  %59 = fptoui double %58 to i32
  store i32 %59, ptr %10, align 4, !tbaa !4
  %60 = load i32, ptr %6, align 4, !tbaa !4
  %61 = and i32 %60, -16777216
  %62 = load i32, ptr %10, align 4, !tbaa !4
  %63 = mul i32 %62, 65793
  %64 = or i32 %61, %63
  %65 = load ptr, ptr %5, align 8, !tbaa !42
  %66 = load i32, ptr %3, align 4, !tbaa !4
  %67 = sext i32 %66 to i64
  %68 = getelementptr inbounds i32, ptr %65, i64 %67
  store i32 %64, ptr %68, align 4, !tbaa !4
  call void @llvm.lifetime.end.p0(i64 4, ptr %10) #9
  call void @llvm.lifetime.end.p0(i64 4, ptr %9) #9
  call void @llvm.lifetime.end.p0(i64 4, ptr %8) #9
  call void @llvm.lifetime.end.p0(i64 4, ptr %7) #9
  call void @llvm.lifetime.end.p0(i64 4, ptr %6) #9
  br label %69

69:                                               ; preds = %34
  %70 = load i32, ptr %3, align 4, !tbaa !4
  %71 = add nsw i32 %70, 1
  store i32 %71, ptr %3, align 4, !tbaa !4
  br label %28, !llvm.loop !43

72:                                               ; preds = %28
  call void @llvm.lifetime.end.p0(i64 8, ptr %5) #9
  br label %73

73:                                               ; preds = %72
  %74 = load i32, ptr %4, align 4, !tbaa !4
  %75 = add nsw i32 %74, 1
  store i32 %75, ptr %4, align 4, !tbaa !4
  br label %11, !llvm.loop !44

76:                                               ; preds = %11
  call void @llvm.lifetime.end.p0(i64 4, ptr %4) #9
  call void @llvm.lifetime.end.p0(i64 4, ptr %3) #9
  ret void
}