; Function Attrs: nofree norecurse nosync nounwind memory(readwrite, inaccessiblemem: none) uwtable
define internal fastcc void @ConvertToGray(ptr noundef nonnull readonly captures(none) %0) unnamed_addr #7 {
  %2 = getelementptr inbounds nuw i8, ptr %0, i64 12
  %3 = load i32, ptr %2, align 4, !tbaa !20
  %4 = icmp sgt i32 %3, 0
  br i1 %4, label %.lr.ph24, label %._crit_edge25

.lr.ph24:                                         ; preds = %1
  %5 = getelementptr inbounds nuw i8, ptr %0, i64 72
  %6 = load ptr, ptr %5, align 8, !tbaa !22
  %7 = getelementptr inbounds nuw i8, ptr %0, i64 80
  %8 = getelementptr inbounds nuw i8, ptr %0, i64 8
  %9 = load i32, ptr %8, align 8, !tbaa !15
  %10 = icmp sgt i32 %9, 0
  br i1 %10, label %.lr.ph24.split, label %._crit_edge25

.lr.ph24.split:                                   ; preds = %.lr.ph24, %._crit_edge
  %11 = phi i32 [ %39, %._crit_edge ], [ %3, %.lr.ph24 ]
  %12 = phi i32 [ %40, %._crit_edge ], [ %9, %.lr.ph24 ]
  %.02022 = phi i32 [ %41, %._crit_edge ], [ 0, %.lr.ph24 ]
  %13 = load i32, ptr %7, align 8, !tbaa !23
  %14 = mul nsw i32 %13, %.02022
  %15 = sext i32 %14 to i64
  %16 = getelementptr inbounds i32, ptr %6, i64 %15
  %17 = icmp sgt i32 %12, 0
  br i1 %17, label %.lr.ph, label %._crit_edge

.lr.ph:                                           ; preds = %.lr.ph24.split, %.lr.ph
  %indvars.iv = phi i64 [ %indvars.iv.next, %.lr.ph ], [ 0, %.lr.ph24.split ]
  %18 = getelementptr inbounds nuw i32, ptr %16, i64 %indvars.iv
  %19 = load i32, ptr %18, align 4, !tbaa !30
  %20 = lshr i32 %19, 16
  %21 = and i32 %20, 255
  %22 = lshr i32 %19, 8
  %23 = and i32 %22, 255
  %24 = and i32 %19, 255
  %25 = uitofp nneg i32 %21 to double
  %26 = uitofp nneg i32 %23 to double
  %27 = fmul double %26, 7.152000e-01
  %28 = tail call double @llvm.fmuladd.f64(double %25, double 2.126000e-01, double %27)
  %29 = uitofp nneg i32 %24 to double
  %30 = tail call double @llvm.fmuladd.f64(double %29, double 7.220000e-02, double %28)
  %31 = fadd double %30, 5.000000e-01
  %32 = fptoui double %31 to i32
  %33 = and i32 %19, -16777216
  %34 = mul i32 %32, 65793
  %35 = or i32 %34, %33
  store i32 %35, ptr %18, align 4, !tbaa !30
  %indvars.iv.next = add nuw nsw i64 %indvars.iv, 1
  %36 = load i32, ptr %8, align 8, !tbaa !15
  %37 = sext i32 %36 to i64
  %38 = icmp slt i64 %indvars.iv.next, %37
  br i1 %38, label %.lr.ph, label %._crit_edge.loopexit, !llvm.loop !39

._crit_edge.loopexit:                             ; preds = %.lr.ph
  %.pre = load i32, ptr %2, align 4, !tbaa !20
  br label %._crit_edge

._crit_edge:                                      ; preds = %._crit_edge.loopexit, %.lr.ph24.split
  %39 = phi i32 [ %.pre, %._crit_edge.loopexit ], [ %11, %.lr.ph24.split ]
  %40 = phi i32 [ %36, %._crit_edge.loopexit ], [ %12, %.lr.ph24.split ]
  %41 = add nuw nsw i32 %.02022, 1
  %42 = icmp slt i32 %41, %39
  br i1 %42, label %.lr.ph24.split, label %._crit_edge25, !llvm.loop !40

._crit_edge25:                                    ; preds = %._crit_edge, %.lr.ph24, %1
  ret void
}